; Function Attrs: mustprogress uwtable
define noundef zeroext i1 @_ZN6Assimp12BaseImporter20SimpleExtensionCheckERKNSt7__cxx1112basic_stringIcSt11char_traitsIcESaIcEEEPKcSA_SA_SA_(ptr noundef nonnull align 8 dereferenceable(32) %0, ptr noundef %1, ptr noundef %2, ptr noundef %3, ptr noundef %4) local_unnamed_addr #2 align 2 personality ptr @__gxx_personality_v0 {
  %6 = alloca %"class.std::set", align 8
  %7 = alloca [4 x ptr], align 8
  %8 = alloca ptr, align 8
  call void @llvm.lifetime.start.p0(i64 48, ptr nonnull %6) #27
  %9 = getelementptr inbounds nuw i8, ptr %6, i64 8
  store i32 0, ptr %9, align 8
  %10 = getelementptr inbounds nuw i8, ptr %6, i64 16
  store ptr null, ptr %10, align 8
  %11 = getelementptr inbounds nuw i8, ptr %6, i64 24
  store ptr %9, ptr %11, align 8
  %12 = getelementptr inbounds nuw i8, ptr %6, i64 32
  store ptr %9, ptr %12, align 8
  %13 = getelementptr inbounds nuw i8, ptr %6, i64 40
  store i64 0, ptr %13, align 8
  call void @llvm.lifetime.start.p0(i64 32, ptr nonnull %7) #27
  store ptr %1, ptr %7, align 8
  %14 = getelementptr inbounds nuw i8, ptr %7, i64 8
  store ptr %2, ptr %14, align 8
  %15 = getelementptr inbounds nuw i8, ptr %7, i64 16
  store ptr %3, ptr %15, align 8
  %16 = getelementptr inbounds nuw i8, ptr %7, i64 24
  store ptr %4, ptr %16, align 8
  br label %19

17:                                               ; preds = %_ZNSt3setINSt7__cxx1112basic_stringIcSt11char_traitsIcESaIcEEESt4lessIS5_ESaIS5_EE7emplaceIJRPKcEEESt4pairISt23_Rb_tree_const_iteratorIS5_EbEDpOT_.exit
  call void @llvm.lifetime.end.p0(i64 32, ptr nonnull %7) #27
  %18 = invoke noundef zeroext i1 @_ZN6Assimp12BaseImporter12HasExtensionERKNSt7__cxx1112basic_stringIcSt11char_traitsIcESaIcEEERKSt3setIS6_St4lessIS6_ESaIS6_EE(ptr noundef nonnull align 8 dereferenceable(32) %0, ptr noundef nonnull align 8 dereferenceable(48) %6)
          to label %26 unwind label %31

19:                                               ; preds = %5, %_ZNSt3setINSt7__cxx1112basic_stringIcSt11char_traitsIcESaIcEEESt4lessIS5_ESaIS5_EE7emplaceIJRPKcEEESt4pairISt23_Rb_tree_const_iteratorIS5_EbEDpOT_.exit
  %.0.idx16 = phi i64 [ 0, %5 ], [ %.0.add, %_ZNSt3setINSt7__cxx1112basic_stringIcSt11char_traitsIcESaIcEEESt4lessIS5_ESaIS5_EE7emplaceIJRPKcEEESt4pairISt23_Rb_tree_const_iteratorIS5_EbEDpOT_.exit ]
  %.0.ptr = getelementptr inbounds nuw i8, ptr %7, i64 %.0.idx16
  call void @llvm.lifetime.start.p0(i64 8, ptr nonnull %8) #27
  %20 = load ptr, ptr %.0.ptr, align 8
  store ptr %20, ptr %8, align 8
  %21 = icmp eq ptr %20, null
  br i1 %21, label %_ZNSt3setINSt7__cxx1112basic_stringIcSt11char_traitsIcESaIcEEESt4lessIS5_ESaIS5_EE7emplaceIJRPKcEEESt4pairISt23_Rb_tree_const_iteratorIS5_EbEDpOT_.exit, label %22

22:                                               ; preds = %19
  %23 = invoke { ptr, i8 } @_ZNSt8_Rb_treeINSt7__cxx1112basic_stringIcSt11char_traitsIcESaIcEEES5_St9_IdentityIS5_ESt4lessIS5_ESaIS5_EE17_M_emplace_uniqueIJRPKcEEESt4pairISt17_Rb_tree_iteratorIS5_EbEDpOT_(ptr noundef nonnull align 8 dereferenceable(48) %6, ptr noundef nonnull align 8 dereferenceable(8) %8)
          to label %_ZNSt3setINSt7__cxx1112basic_stringIcSt11char_traitsIcESaIcEEESt4lessIS5_ESaIS5_EE7emplaceIJRPKcEEESt4pairISt23_Rb_tree_const_iteratorIS5_EbEDpOT_.exit unwind label %24

_ZNSt3setINSt7__cxx1112basic_stringIcSt11char_traitsIcESaIcEEESt4lessIS5_ESaIS5_EE7emplaceIJRPKcEEESt4pairISt23_Rb_tree_const_iteratorIS5_EbEDpOT_.exit: ; preds = %22, %19
  call void @llvm.lifetime.end.p0(i64 8, ptr nonnull %8) #27
  %.0.add = add nuw nsw i64 %.0.idx16, 8
  %.not = icmp eq i64 %.0.add, 32
  br i1 %.not, label %17, label %19

24:                                               ; preds = %22
  %25 = landingpad { ptr, i32 }
          cleanup
  call void @llvm.lifetime.end.p0(i64 8, ptr nonnull %8) #27
  call void @llvm.lifetime.end.p0(i64 32, ptr nonnull %7) #27
  br label %33

26:                                               ; preds = %17
  %27 = load ptr, ptr %10, align 8
  invoke void @_ZNSt8_Rb_treeINSt7__cxx1112basic_stringIcSt11char_traitsIcESaIcEEES5_St9_IdentityIS5_ESt4lessIS5_ESaIS5_EE8_M_eraseEPSt13_Rb_tree_nodeIS5_E(ptr noundef nonnull align 8 dereferenceable(48) %6, ptr noundef %27)
          to label %_ZNSt3setINSt7__cxx1112basic_stringIcSt11char_traitsIcESaIcEEESt4lessIS5_ESaIS5_EED2Ev.exit unwind label %28

28:                                               ; preds = %26
  %29 = landingpad { ptr, i32 }
          catch ptr null
  %30 = extractvalue { ptr, i32 } %29, 0
  call void @__clang_call_terminate(ptr %30) #30
  unreachable

_ZNSt3setINSt7__cxx1112basic_stringIcSt11char_traitsIcESaIcEEESt4lessIS5_ESaIS5_EED2Ev.exit: ; preds = %26
  call void @llvm.lifetime.end.p0(i64 48, ptr nonnull %6) #27
  ret i1 %18

31:                                               ; preds = %17
  %32 = landingpad { ptr, i32 }
          cleanup
  br label %33

33:                                               ; preds = %31, %24
  %.pn = phi { ptr, i32 } [ %25, %24 ], [ %32, %31 ]
  call void @_ZNSt3setINSt7__cxx1112basic_stringIcSt11char_traitsIcESaIcEEESt4lessIS5_ESaIS5_EED2Ev(ptr noundef nonnull align 8 dereferenceable(48) %6) #27
  call void @llvm.lifetime.end.p0(i64 48, ptr nonnull %6) #27
  resume { ptr, i32 } %.pn
}